target datalayout = "e-m:e-p270:32:32-p271:32:32-p272:64:64-i64:64-i128:128-f80:128-n8:16:32:64-S128"
target triple = "x86_64-pc-linux-gnu"

%struct.mbedtls_mpi = type { ptr, i16, i16 }

; Function Attrs: nounwind uwtable
define hidden i32 @mbedtls_mpi_add_mpi(ptr noundef %0, ptr noundef %1, ptr noundef %2) #0 {
  %4 = alloca ptr, align 8
  %5 = alloca ptr, align 8
  %6 = alloca ptr, align 8
  store ptr %0, ptr %4, align 8, !tbaa !3
  store ptr %1, ptr %5, align 8, !tbaa !3
  store ptr %2, ptr %6, align 8, !tbaa !3
  %7 = load ptr, ptr %4, align 8, !tbaa !3
  %8 = load ptr, ptr %5, align 8, !tbaa !3
  %9 = load ptr, ptr %6, align 8, !tbaa !3
  %10 = call i32 @add_sub_mpi(ptr noundef %7, ptr noundef %8, ptr noundef %9, i32 noundef 1)
  ret i32 %10
}

; Function Attrs: inlinehint nounwind uwtable
define internal i64 @mpi_sint_abs(i64 noundef %0) #2 {
  %2 = alloca i64, align 8
  %3 = alloca i64, align 8
  store i64 %0, ptr %3, align 8, !tbaa !15
  %4 = load i64, ptr %3, align 8, !tbaa !15
  %5 = icmp sge i64 %4, 0
  br i1 %5, label %6, label %8

6:                                                ; preds = %1
  %7 = load i64, ptr %3, align 8, !tbaa !15
  store i64 %7, ptr %2, align 8
  br label %11

8:                                                ; preds = %1
  %9 = load i64, ptr %3, align 8, !tbaa !15
  %10 = sub i64 0, %9
  store i64 %10, ptr %2, align 8
  br label %11

11:                                               ; preds = %8, %6
  %12 = load i64, ptr %2, align 8
  ret i64 %12
}

; Function Attrs: nounwind uwtable
define hidden i32 @mbedtls_mpi_add_int(ptr noundef %0, ptr noundef %1, i64 noundef %2) #0 {
  %4 = alloca ptr, align 8
  %5 = alloca ptr, align 8
  %6 = alloca i64, align 8
  %7 = alloca %struct.mbedtls_mpi, align 8
  %8 = alloca [1 x i64], align 8
  store ptr %0, ptr %4, align 8, !tbaa !3
  store ptr %1, ptr %5, align 8, !tbaa !3
  store i64 %2, ptr %6, align 8, !tbaa !15
  call void @llvm.lifetime.start.p0(i64 16, ptr %7) #9
  call void @llvm.lifetime.start.p0(i64 8, ptr %8) #9
  %9 = load i64, ptr %6, align 8, !tbaa !15
  %10 = call i64 @mpi_sint_abs(i64 noundef %9)
  %11 = getelementptr inbounds [1 x i64], ptr %8, i64 0, i64 0
  store i64 %10, ptr %11, align 8, !tbaa !15
  %12 = load i64, ptr %6, align 8, !tbaa !15
  %13 = lshr i64 %12, 63
  %14 = mul nsw i64 %13, -2
  %15 = add nsw i64 %14, 1
  %16 = trunc i64 %15 to i16
  %17 = getelementptr inbounds nuw %struct.mbedtls_mpi, ptr %7, i32 0, i32 1
  store i16 %16, ptr %17, align 8, !tbaa !14
  %18 = getelementptr inbounds nuw %struct.mbedtls_mpi, ptr %7, i32 0, i32 2
  store i16 1, ptr %18, align 2, !tbaa !10
  %19 = getelementptr inbounds [1 x i64], ptr %8, i64 0, i64 0
  %20 = getelementptr inbounds nuw %struct.mbedtls_mpi, ptr %7, i32 0, i32 0
  store ptr %19, ptr %20, align 8, !tbaa !17
  %21 = load ptr, ptr %4, align 8, !tbaa !3
  %22 = load ptr, ptr %5, align 8, !tbaa !3
  %23 = call i32 @mbedtls_mpi_add_mpi(ptr noundef %21, ptr noundef %22, ptr noundef %7)
  call void @llvm.lifetime.end.p0(i64 8, ptr %8) #9
  call void @llvm.lifetime.end.p0(i64 16, ptr %7) #9
  ret i32 %23
}